; ModuleID = '3/3105.c'
source_filename = "3/3105.c"
target datalayout = "e-m:e-p270:32:32-p271:32:32-p272:64:64-i64:64-f80:128-n8:16:32:64-S128"
target triple = "x86_64-pc-linux-gnu"

@.str = private unnamed_addr constant [3 x i8] c"%d\00", align 1
@.str.1 = private unnamed_addr constant [7 x i8] c"%c%c%c\00", align 1
@.str.2 = private unnamed_addr constant [5 x i8] c"%c%c\00", align 1

; Function Attrs: noinline nounwind uwtable
define dso_local i32 @main() #0 {
  %1 = alloca i32, align 4
  %2 = alloca [1000 x i32], align 16
  %3 = alloca i32, align 4
  %4 = alloca i32, align 4
  %5 = alloca i32, align 4
  %6 = alloca i32, align 4
  %7 = alloca i32, align 4
  store i32 0, i32* %1, align 4
  %8 = bitcast [1000 x i32]* %2 to i8*
  call void @llvm.memset.p0i8.i64(i8* align 16 %8, i8 0, i64 4000, i1 false)
  store i32 0, i32* %3, align 4
  store i32 0, i32* %4, align 4
  %9 = call i32 (i8*, ...) @__isoc99_scanf(i8* getelementptr inbounds ([3 x i8], [3 x i8]* @.str, i64 0, i64 0), i32* %3)
  %10 = call i32 (i8*, ...) @__isoc99_scanf(i8* getelementptr inbounds ([3 x i8], [3 x i8]* @.str, i64 0, i64 0), i32* %4)
  store i32 0, i32* %5, align 4
  store i32 0, i32* %6, align 4
  store i32 0, i32* %7, align 4
  store i32 0, i32* %5, align 4
  br label %11

11:                                               ; preds = %20, %0
  %12 = load i32, i32* %5, align 4
  %13 = load i32, i32* %3, align 4
  %14 = icmp slt i32 %12, %13
  br i1 %14, label %15, label %23

15:                                               ; preds = %11
  %16 = load i32, i32* %5, align 4
  %17 = sext i32 %16 to i64
  %18 = getelementptr inbounds [1000 x i32], [1000 x i32]* %2, i64 0, i64 %17
  %19 = call i32 (i8*, ...) @__isoc99_scanf(i8* getelementptr inbounds ([3 x i8], [3 x i8]* @.str, i64 0, i64 0), i32* %18)
  br label %20

20:                                               ; preds = %15
  %21 = load i32, i32* %5, align 4
  %22 = add nsw i32 %21, 1
  store i32 %22, i32* %5, align 4
  br label %11

23:                                               ; preds = %11
  store i32 0, i32* %5, align 4
  br label %24

24:                                               ; preds = %57, %23
  %25 = load i32, i32* %5, align 4
  %26 = load i32, i32* %3, align 4
  %27 = sub nsw i32 %26, 1
  %28 = icmp slt i32 %25, %27
  br i1 %28, label %29, label %60

29:                                               ; preds = %24
  store i32 1, i32* %6, align 4
  br label %30

30:                                               ; preds = %49, %29
  %31 = load i32, i32* %6, align 4
  %32 = load i32, i32* %3, align 4
  %33 = icmp slt i32 %31, %32
  br i1 %33, label %34, label %52

34:                                               ; preds = %30
  %35 = load i32, i32* %5, align 4
  %36 = sext i32 %35 to i64
  %37 = getelementptr inbounds [1000 x i32], [1000 x i32]* %2, i64 0, i64 %36
  %38 = load i32, i32* %37, align 4
  %39 = load i32, i32* %6, align 4
  %40 = sext i32 %39 to i64
  %41 = getelementptr inbounds [1000 x i32], [1000 x i32]* %2, i64 0, i64 %40
  %42 = load i32, i32* %41, align 4
  %43 = add nsw i32 %38, %42
  %44 = load i32, i32* %4, align 4
  %45 = icmp eq i32 %43, %44
  br i1 %45, label %46, label %48

46:                                               ; preds = %34
  %47 = call i32 (i8*, ...) @printf(i8* getelementptr inbounds ([7 x i8], [7 x i8]* @.str.1, i64 0, i64 0), i32 121, i32 101, i32 115)
  store i32 1, i32* %7, align 4
  br label %52

48:                                               ; preds = %34
  br label %49

49:                                               ; preds = %48
  %50 = load i32, i32* %6, align 4
  %51 = add nsw i32 %50, 1
  store i32 %51, i32* %6, align 4
  br label %30

52:                                               ; preds = %46, %30
  %53 = load i32, i32* %7, align 4
  %54 = icmp eq i32 %53, 1
  br i1 %54, label %55, label %56

55:                                               ; preds = %52
  br label %60

56:                                               ; preds = %52
  br label %57

57:                                               ; preds = %56
  %58 = load i32, i32* %5, align 4
  %59 = add nsw i32 %58, 1
  store i32 %59, i32* %5, align 4
  br label %24

60:                                               ; preds = %55, %24
  %61 = load i32, i32* %7, align 4
  %62 = icmp eq i32 %61, 0
  br i1 %62, label %63, label %65

63:                                               ; preds = %60
  %64 = call i32 (i8*, ...) @printf(i8* getelementptr inbounds ([5 x i8], [5 x i8]* @.str.2, i64 0, i64 0), i32 110, i32 111)
  br label %65

65:                                               ; preds = %63, %60
  ret i32 0
}

; Function Attrs: argmemonly nounwind willreturn
declare void @llvm.memset.p0i8.i64(i8* nocapture writeonly, i8, i64, i1 immarg) #1

declare dso_local i32 @__isoc99_scanf(i8*, ...) #2

declare dso_local i32 @printf(i8*, ...) #2


!llvm.module.flags = !{!0}
!llvm.ident = !{!1}

!0 = !{i32 1, !"wchar_size", i32 4}
!1 = !{!"clang version 10.0.0-4ubuntu1 "}
