; ModuleID = 'source-C-CXX/2/3105.c'
source_filename = "source-C-CXX/2/3105.c"
target datalayout = "e-m:e-p270:32:32-p271:32:32-p272:64:64-i64:64-f80:128-n8:16:32:64-S128"
target triple = "x86_64-pc-linux-gnu"

@.str = private unnamed_addr constant [3 x i8] c"%d\00", align 1
@.str.1 = private unnamed_addr constant [7 x i8] c"%c%c%c\00", align 1
@.str.2 = private unnamed_addr constant [5 x i8] c"%c%c\00", align 1

; Function Attrs: nofree nounwind sspstrong uwtable
define dso_local i32 @main() local_unnamed_addr #0 {
  %1 = alloca [1000 x i32], align 16
  %2 = alloca i32, align 4
  %3 = alloca i32, align 4
  %4 = bitcast [1000 x i32]* %1 to i8*
  call void @llvm.lifetime.start.p0i8(i64 4000, i8* nonnull %4) #4
  call void @llvm.memset.p0i8.i64(i8* noundef nonnull align 16 dereferenceable(4000) %4, i8 0, i64 4000, i1 false)
  %5 = bitcast i32* %2 to i8*
  call void @llvm.lifetime.start.p0i8(i64 4, i8* nonnull %5) #4
  store i32 0, i32* %2, align 4, !tbaa !5
  %6 = bitcast i32* %3 to i8*
  call void @llvm.lifetime.start.p0i8(i64 4, i8* nonnull %6) #4
  store i32 0, i32* %3, align 4, !tbaa !5
  %7 = call i32 (i8*, ...) @__isoc99_scanf(i8* getelementptr inbounds ([3 x i8], [3 x i8]* @.str, i64 0, i64 0), i32* nonnull %2)
  %8 = call i32 (i8*, ...) @__isoc99_scanf(i8* getelementptr inbounds ([3 x i8], [3 x i8]* @.str, i64 0, i64 0), i32* nonnull %3)
  %9 = load i32, i32* %2, align 4, !tbaa !5
  %10 = icmp sgt i32 %9, 0
  br i1 %10, label %37, label %47

11:                                               ; preds = %37
  %12 = add i32 %42, -1
  %13 = load i32, i32* %3, align 4
  %14 = icmp sgt i32 %42, 1
  br i1 %14, label %15, label %47

15:                                               ; preds = %11
  %16 = zext i32 %12 to i64
  %17 = zext i32 %12 to i64
  %18 = zext i32 %42 to i64
  br label %19

19:                                               ; preds = %15, %33
  %20 = phi i64 [ 0, %15 ], [ %34, %33 ]
  %21 = phi i1 [ true, %15 ], [ %35, %33 ]
  %22 = getelementptr inbounds [1000 x i32], [1000 x i32]* %1, i64 0, i64 %20
  %23 = load i32, i32* %22, align 4, !tbaa !5
  br label %26

24:                                               ; preds = %26
  %25 = icmp eq i64 %32, %18
  br i1 %25, label %33, label %26, !llvm.loop !9

26:                                               ; preds = %19, %24
  %27 = phi i64 [ 1, %19 ], [ %32, %24 ]
  %28 = getelementptr inbounds [1000 x i32], [1000 x i32]* %1, i64 0, i64 %27
  %29 = load i32, i32* %28, align 4, !tbaa !5
  %30 = add nsw i32 %29, %23
  %31 = icmp eq i32 %30, %13
  %32 = add nuw nsw i64 %27, 1
  br i1 %31, label %45, label %24

33:                                               ; preds = %24
  %34 = add nuw nsw i64 %20, 1
  %35 = icmp ult i64 %34, %16
  %36 = icmp eq i64 %34, %17
  br i1 %36, label %47, label %19, !llvm.loop !11

37:                                               ; preds = %0, %37
  %38 = phi i64 [ %41, %37 ], [ 0, %0 ]
  %39 = getelementptr inbounds [1000 x i32], [1000 x i32]* %1, i64 0, i64 %38
  %40 = call i32 (i8*, ...) @__isoc99_scanf(i8* getelementptr inbounds ([3 x i8], [3 x i8]* @.str, i64 0, i64 0), i32* nonnull %39)
  %41 = add nuw nsw i64 %38, 1
  %42 = load i32, i32* %2, align 4, !tbaa !5
  %43 = sext i32 %42 to i64
  %44 = icmp slt i64 %41, %43
  br i1 %44, label %37, label %11, !llvm.loop !12

45:                                               ; preds = %26
  %46 = call i32 (i8*, ...) @printf(i8* nonnull dereferenceable(1) getelementptr inbounds ([7 x i8], [7 x i8]* @.str.1, i64 0, i64 0), i32 121, i32 101, i32 115)
  br i1 %21, label %49, label %47

47:                                               ; preds = %33, %0, %11, %45
  %48 = call i32 (i8*, ...) @printf(i8* nonnull dereferenceable(1) getelementptr inbounds ([5 x i8], [5 x i8]* @.str.2, i64 0, i64 0), i32 110, i32 111)
  br label %49

49:                                               ; preds = %47, %45
  call void @llvm.lifetime.end.p0i8(i64 4, i8* nonnull %6) #4
  call void @llvm.lifetime.end.p0i8(i64 4, i8* nonnull %5) #4
  call void @llvm.lifetime.end.p0i8(i64 4000, i8* nonnull %4) #4
  ret i32 0
}

; Function Attrs: argmemonly mustprogress nofree nosync nounwind willreturn
declare void @llvm.lifetime.start.p0i8(i64 immarg, i8* nocapture) #1

; Function Attrs: argmemonly mustprogress nofree nounwind willreturn writeonly
declare void @llvm.memset.p0i8.i64(i8* nocapture writeonly, i8, i64, i1 immarg) #2

; Function Attrs: nofree nounwind
declare noundef i32 @__isoc99_scanf(i8* nocapture noundef readonly, ...) local_unnamed_addr #3

; Function Attrs: nofree nounwind
declare noundef i32 @printf(i8* nocapture noundef readonly, ...) local_unnamed_addr #3

; Function Attrs: argmemonly mustprogress nofree nosync nounwind willreturn
declare void @llvm.lifetime.end.p0i8(i64 immarg, i8* nocapture) #1


!llvm.module.flags = !{!0, !1, !2, !3}
!llvm.ident = !{!4}

!0 = !{i32 1, !"wchar_size", i32 4}
!1 = !{i32 7, !"PIC Level", i32 2}
!2 = !{i32 7, !"PIE Level", i32 2}
!3 = !{i32 7, !"uwtable", i32 1}
!4 = !{!"clang version 13.0.0"}
!5 = !{!6, !6, i64 0}
!6 = !{!"int", !7, i64 0}
!7 = !{!"omnipotent char", !8, i64 0}
!8 = !{!"Simple C/C++ TBAA"}
!9 = distinct !{!9, !10}
!10 = !{!"llvm.loop.mustprogress"}
!11 = distinct !{!11, !10}
!12 = distinct !{!12, !10}
